; Function Attrs: mustprogress nounwind uwtable
define hidden void @_ZN20ShenandoahHeapRegion9set_stateENS_11RegionStateE(ptr nocapture noundef nonnull align 8 dereferenceable(96) %0, i32 noundef %1) local_unnamed_addr #0 align 2 {
  %3 = alloca %class.EventShenandoahHeapRegionStateChange, align 8
  %4 = getelementptr inbounds i8, ptr %3, i64 8
  call void @llvm.memset.p0.i64(ptr noundef nonnull align 8 dereferenceable(11) %4, i8 0, i64 11, i1 false)
  %5 = load i8, ptr getelementptr inbounds (i8, ptr @_ZN15JfrEventSetting19_jvm_event_settingsE, i64 3737), align 1
  %.not.i.not = icmp eq i8 %5, 0
  br i1 %.not.i.not, label %_ZN8JfrEventI36EventShenandoahHeapRegionStateChangeE13should_commitEv.exit, label %6

6:                                                ; preds = %2
  %7 = getelementptr inbounds i8, ptr %3, i64 18
  %8 = getelementptr inbounds i8, ptr %3, i64 17
  %9 = tail call noundef i64 @_ZN33FastUnorderedElapsedCounterSource3nowEv() #18
  store i64 %9, ptr %3, align 8
  store i8 1, ptr %8, align 1
  store i8 1, ptr %7, align 2
  %10 = load i64, ptr %0, align 8
  %11 = trunc i64 %10 to i32
  %12 = getelementptr inbounds i8, ptr %3, i64 20
  store i32 %11, ptr %12, align 4
  %13 = getelementptr inbounds i8, ptr %0, i64 8
  %14 = load ptr, ptr %13, align 8
  %15 = ptrtoint ptr %14 to i64
  %16 = getelementptr inbounds i8, ptr %3, i64 40
  store i64 %15, ptr %16, align 8
  %17 = getelementptr inbounds i8, ptr %0, i64 48
  %18 = load ptr, ptr %17, align 8
  %19 = ptrtoint ptr %18 to i64
  %20 = sub i64 %19, %15
  %21 = getelementptr inbounds i8, ptr %3, i64 48
  store i64 %20, ptr %21, align 8
  %22 = getelementptr inbounds i8, ptr %0, i64 40
  %23 = load i32, ptr %22, align 8
  %24 = zext i32 %23 to i64
  %25 = getelementptr inbounds i8, ptr %3, i64 24
  store i64 %24, ptr %25, align 8
  %26 = zext i32 %1 to i64
  %27 = getelementptr inbounds i8, ptr %3, i64 32
  store i64 %26, ptr %27, align 8
  call void @_ZN8JfrEventI36EventShenandoahHeapRegionStateChangeE6commitEv(ptr noundef nonnull align 8 dereferenceable(19) %3)
  br label %_ZN8JfrEventI36EventShenandoahHeapRegionStateChangeE13should_commitEv.exit

_ZN8JfrEventI36EventShenandoahHeapRegionStateChangeE13should_commitEv.exit: ; preds = %2, %6
  %28 = getelementptr inbounds i8, ptr %0, i64 40
  store i32 %1, ptr %28, align 8
  ret void
}